	.text
	.syntax unified
	.eabi_attribute	67, "2.09"	@ Tag_conformance
	.cpu	cortex-m3
	.eabi_attribute	6, 10	@ Tag_CPU_arch
	.eabi_attribute	7, 77	@ Tag_CPU_arch_profile
	.eabi_attribute	8, 0	@ Tag_ARM_ISA_use
	.eabi_attribute	9, 2	@ Tag_THUMB_ISA_use
	.eabi_attribute	34, 1	@ Tag_CPU_unaligned_access
	.eabi_attribute	17, 1	@ Tag_ABI_PCS_GOT_use
	.eabi_attribute	20, 2	@ Tag_ABI_FP_denormal
	.eabi_attribute	21, 0	@ Tag_ABI_FP_exceptions
	.eabi_attribute	23, 1	@ Tag_ABI_FP_number_model
	.eabi_attribute	24, 1	@ Tag_ABI_align_needed
	.eabi_attribute	25, 1	@ Tag_ABI_align_preserved
	.eabi_attribute	38, 1	@ Tag_ABI_FP_16bit_format
	.eabi_attribute	18, 2	@ Tag_ABI_PCS_wchar_t
	.eabi_attribute	26, 1	@ Tag_ABI_enum_size
	.eabi_attribute	14, 0	@ Tag_ABI_PCS_R9_use
	.file	"main.c"
	.file	1 "C:\\Users\\wilson\\program\\project\\task_scheduler\\mdk5" "../main.c"
	.file	2 "C:\\Keil_v5\\ARM\\ARMCLANG\\Bin\\..\\include" "stdint.h"
	.file	3 "C:\\Users\\wilson\\program\\project\\task_scheduler\\mdk5" "../inc\\task.h"
	.file	4 "C:/Users/wilson/AppData/Roaming/CMSIS-Packs/ARM/CMSIS/5.9.0/CMSIS/Core/Include" "core_cm3.h"
	.section	.text.fputc,"ax",%progbits
	.hidden	fputc                           @ -- Begin function fputc
	.globl	fputc
	.p2align	2
	.type	fputc,%function
	.code	16                              @ @fputc
	.thumb_func
fputc:
.Lfunc_begin0:
	.loc	1 18 0                          @ ../main.c:18:0
	.fnstart
	.cfi_sections .debug_frame
	.cfi_startproc
@ %bb.0:
	.save	{r7, lr}
	push	{r7, lr}
	.cfi_def_cfa_offset 8
	.cfi_offset lr, -4
	.cfi_offset r7, -8
	.pad	#8
	sub	sp, #8
	.cfi_def_cfa_offset 16
	str	r0, [sp, #4]
	str	r1, [sp]
.Ltmp0:
	.loc	1 19 15 prologue_end            @ ../main.c:19:15
	ldr	r0, [sp, #4]
	.loc	1 19 2 is_stmt 0                @ ../main.c:19:2
	bl	ITM_SendChar
	.loc	1 20 9 is_stmt 1                @ ../main.c:20:9
	ldr	r0, [sp, #4]
	.loc	1 20 2 is_stmt 0                @ ../main.c:20:2
	add	sp, #8
	pop	{r7, pc}
.Ltmp1:
.Lfunc_end0:
	.size	fputc, .Lfunc_end0-fputc
	.cfi_endproc
	.cantunwind
	.fnend
                                        @ -- End function
	.section	.text.ITM_SendChar,"ax",%progbits
	.p2align	2                               @ -- Begin function ITM_SendChar
	.type	ITM_SendChar,%function
	.code	16                              @ @ITM_SendChar
	.thumb_func
ITM_SendChar:
.Lfunc_begin1:
	.loc	4 1879 0 is_stmt 1              @ C:/Users/wilson/AppData/Roaming/CMSIS-Packs/ARM/CMSIS/5.9.0/CMSIS/Core/Include\core_cm3.h:1879:0
	.fnstart
	.cfi_startproc
@ %bb.0:
	.pad	#4
	sub	sp, #4
	.cfi_def_cfa_offset 4
	str	r0, [sp]
	movw	r0, #3712
	movt	r0, #57344
.Ltmp2:
	.loc	4 1880 14 prologue_end          @ C:/Users/wilson/AppData/Roaming/CMSIS-Packs/ARM/CMSIS/5.9.0/CMSIS/Core/Include\core_cm3.h:1880:14
	ldr	r0, [r0]
	.loc	4 1880 48 is_stmt 0             @ C:/Users/wilson/AppData/Roaming/CMSIS-Packs/ARM/CMSIS/5.9.0/CMSIS/Core/Include\core_cm3.h:1880:48
	lsls	r0, r0, #31
	cbz	r0, .LBB1_6
	b	.LBB1_1
.LBB1_1:
	.loc	4 0 48                          @ C:/Users/wilson/AppData/Roaming/CMSIS-Packs/ARM/CMSIS/5.9.0/CMSIS/Core/Include\core_cm3.h:0:48
	movw	r0, #3584
	movt	r0, #57344
	.loc	4 1881 14 is_stmt 1             @ C:/Users/wilson/AppData/Roaming/CMSIS-Packs/ARM/CMSIS/5.9.0/CMSIS/Core/Include\core_cm3.h:1881:14
	ldr	r0, [r0]
.Ltmp3:
	.loc	4 1880 7                        @ C:/Users/wilson/AppData/Roaming/CMSIS-Packs/ARM/CMSIS/5.9.0/CMSIS/Core/Include\core_cm3.h:1880:7
	lsls	r0, r0, #31
	cbz	r0, .LBB1_6
	b	.LBB1_2
.LBB1_2:
.Ltmp4:
	.loc	4 1883 5                        @ C:/Users/wilson/AppData/Roaming/CMSIS-Packs/ARM/CMSIS/5.9.0/CMSIS/Core/Include\core_cm3.h:1883:5
	b	.LBB1_3
.LBB1_3:                                @ =>This Inner Loop Header: Depth=1
	.loc	4 0 5 is_stmt 0                 @ C:/Users/wilson/AppData/Roaming/CMSIS-Packs/ARM/CMSIS/5.9.0/CMSIS/Core/Include\core_cm3.h:0:5
	mov.w	r0, #-536870912
	.loc	4 1883 26                       @ C:/Users/wilson/AppData/Roaming/CMSIS-Packs/ARM/CMSIS/5.9.0/CMSIS/Core/Include\core_cm3.h:1883:26
	ldr	r0, [r0]
	.loc	4 1883 5                        @ C:/Users/wilson/AppData/Roaming/CMSIS-Packs/ARM/CMSIS/5.9.0/CMSIS/Core/Include\core_cm3.h:1883:5
	cbnz	r0, .LBB1_5
	b	.LBB1_4
.LBB1_4:                                @   in Loop: Header=BB1_3 Depth=1
.Ltmp5:
	.loc	4 1885 7 is_stmt 1              @ C:/Users/wilson/AppData/Roaming/CMSIS-Packs/ARM/CMSIS/5.9.0/CMSIS/Core/Include\core_cm3.h:1885:7
	nop
.Ltmp6:
	.loc	4 1883 5                        @ C:/Users/wilson/AppData/Roaming/CMSIS-Packs/ARM/CMSIS/5.9.0/CMSIS/Core/Include\core_cm3.h:1883:5
	b	.LBB1_3
.LBB1_5:
	.loc	4 1887 33                       @ C:/Users/wilson/AppData/Roaming/CMSIS-Packs/ARM/CMSIS/5.9.0/CMSIS/Core/Include\core_cm3.h:1887:33
	ldr	r0, [sp]
	mov.w	r1, #-536870912
	.loc	4 1887 22 is_stmt 0             @ C:/Users/wilson/AppData/Roaming/CMSIS-Packs/ARM/CMSIS/5.9.0/CMSIS/Core/Include\core_cm3.h:1887:22
	strb	r0, [r1]
	.loc	4 1888 3 is_stmt 1              @ C:/Users/wilson/AppData/Roaming/CMSIS-Packs/ARM/CMSIS/5.9.0/CMSIS/Core/Include\core_cm3.h:1888:3
	b	.LBB1_6
.Ltmp7:
.LBB1_6:
	.loc	4 1889 11                       @ C:/Users/wilson/AppData/Roaming/CMSIS-Packs/ARM/CMSIS/5.9.0/CMSIS/Core/Include\core_cm3.h:1889:11
	ldr	r0, [sp]
	.loc	4 1889 3 is_stmt 0              @ C:/Users/wilson/AppData/Roaming/CMSIS-Packs/ARM/CMSIS/5.9.0/CMSIS/Core/Include\core_cm3.h:1889:3
	add	sp, #4
	bx	lr
.Ltmp8:
.Lfunc_end1:
	.size	ITM_SendChar, .Lfunc_end1-ITM_SendChar
	.cfi_endproc
	.cantunwind
	.fnend
                                        @ -- End function
	.section	.text.task1_fun,"ax",%progbits
	.hidden	task1_fun                       @ -- Begin function task1_fun
	.globl	task1_fun
	.p2align	2
	.type	task1_fun,%function
	.code	16                              @ @task1_fun
	.thumb_func
task1_fun:
.Lfunc_begin2:
	.loc	1 23 0 is_stmt 1                @ ../main.c:23:0
	.fnstart
	.cfi_startproc
@ %bb.0:
	.save	{r7, lr}
	push	{r7, lr}
	.cfi_def_cfa_offset 8
	.cfi_offset lr, -4
	.cfi_offset r7, -8
	.pad	#16
	sub	sp, #16
	.cfi_def_cfa_offset 24
	str	r0, [sp, #12]
	movs	r0, #0
.Ltmp9:
	.loc	1 24 11 prologue_end            @ ../main.c:24:11
	str	r0, [sp, #8]
	.loc	1 24 18 is_stmt 0               @ ../main.c:24:18
	str	r0, [sp, #4]
	.loc	1 25 2 is_stmt 1                @ ../main.c:25:2
	b	.LBB2_1
.LBB2_1:                                @ =>This Inner Loop Header: Depth=1
.Ltmp10:
	.loc	1 27 14                         @ ../main.c:27:14
	bl	ulGetTick
	.loc	1 27 12 is_stmt 0               @ ../main.c:27:12
	str	r0, [sp, #4]
	.loc	1 39 31 is_stmt 1               @ ../main.c:39:31
	ldr	r1, [sp, #4]
	.loc	1 39 3 is_stmt 0                @ ../main.c:39:3
	movw	r0, :lower16:.L.str
	movt	r0, :upper16:.L.str
	bl	printf
	mov.w	r0, #1000
	.loc	1 40 3 is_stmt 1                @ ../main.c:40:3
	bl	vTaskDelay
.Ltmp11:
	.loc	1 25 2                          @ ../main.c:25:2
	b	.LBB2_1
.Ltmp12:
.Lfunc_end2:
	.size	task1_fun, .Lfunc_end2-task1_fun
	.cfi_endproc
	.cantunwind
	.fnend
                                        @ -- End function
	.section	.text.task2_fun,"ax",%progbits
	.hidden	task2_fun                       @ -- Begin function task2_fun
	.globl	task2_fun
	.p2align	2
	.type	task2_fun,%function
	.code	16                              @ @task2_fun
	.thumb_func
task2_fun:
.Lfunc_begin3:
	.loc	1 45 0                          @ ../main.c:45:0
	.fnstart
	.cfi_startproc
@ %bb.0:
	.save	{r7, lr}
	push	{r7, lr}
	.cfi_def_cfa_offset 8
	.cfi_offset lr, -4
	.cfi_offset r7, -8
	.pad	#16
	sub	sp, #16
	.cfi_def_cfa_offset 24
	str	r0, [sp, #12]
	movs	r0, #0
.Ltmp13:
	.loc	1 46 11 prologue_end            @ ../main.c:46:11
	str	r0, [sp, #8]
	.loc	1 46 18 is_stmt 0               @ ../main.c:46:18
	str	r0, [sp, #4]
	.loc	1 47 2 is_stmt 1                @ ../main.c:47:2
	b	.LBB3_1
.LBB3_1:                                @ =>This Inner Loop Header: Depth=1
.Ltmp14:
	.loc	1 49 14                         @ ../main.c:49:14
	bl	ulGetTick
	.loc	1 49 12 is_stmt 0               @ ../main.c:49:12
	str	r0, [sp, #4]
	.loc	1 62 31 is_stmt 1               @ ../main.c:62:31
	ldr	r1, [sp, #4]
	.loc	1 62 3 is_stmt 0                @ ../main.c:62:3
	movw	r0, :lower16:.L.str.1
	movt	r0, :upper16:.L.str.1
	bl	printf
	movw	r0, #5000
	.loc	1 63 3 is_stmt 1                @ ../main.c:63:3
	bl	vTaskDelay
.Ltmp15:
	.loc	1 47 2                          @ ../main.c:47:2
	b	.LBB3_1
.Ltmp16:
.Lfunc_end3:
	.size	task2_fun, .Lfunc_end3-task2_fun
	.cfi_endproc
	.cantunwind
	.fnend
                                        @ -- End function
	.section	.text.task_idle,"ax",%progbits
	.hidden	task_idle                       @ -- Begin function task_idle
	.globl	task_idle
	.p2align	2
	.type	task_idle,%function
	.code	16                              @ @task_idle
	.thumb_func
task_idle:
.Lfunc_begin4:
	.loc	1 68 0                          @ ../main.c:68:0
	.fnstart
	.cfi_startproc
@ %bb.0:
	.save	{r7, lr}
	push	{r7, lr}
	.cfi_def_cfa_offset 8
	.cfi_offset lr, -4
	.cfi_offset r7, -8
	.pad	#16
	sub	sp, #16
	.cfi_def_cfa_offset 24
	str	r0, [sp, #12]
	movs	r0, #0
.Ltmp17:
	.loc	1 69 11 prologue_end            @ ../main.c:69:11
	str	r0, [sp, #8]
	.loc	1 69 18 is_stmt 0               @ ../main.c:69:18
	str	r0, [sp, #4]
	.loc	1 70 2 is_stmt 1                @ ../main.c:70:2
	b	.LBB4_1
.LBB4_1:                                @ =>This Inner Loop Header: Depth=1
.Ltmp18:
	.loc	1 72 14                         @ ../main.c:72:14
	bl	ulGetTick
	.loc	1 72 12 is_stmt 0               @ ../main.c:72:12
	str	r0, [sp, #4]
.Ltmp19:
	.loc	1 73 6 is_stmt 1                @ ../main.c:73:6
	ldr	r0, [sp, #4]
	.loc	1 73 15 is_stmt 0               @ ../main.c:73:15
	ldr	r1, [sp, #8]
	movw	r2, #5000
	.loc	1 73 19                         @ ../main.c:73:19
	add	r1, r2
.Ltmp20:
	.loc	1 73 6                          @ ../main.c:73:6
	cmp	r0, r1
	bls	.LBB4_5
	b	.LBB4_2
.LBB4_2:                                @   in Loop: Header=BB4_1 Depth=1
.Ltmp21:
	.loc	1 76 7 is_stmt 1                @ ../main.c:76:7
	movw	r0, :lower16:printf_mutex
	movt	r0, :upper16:printf_mutex
	ldr	r0, [r0]
.Ltmp22:
	.loc	1 76 7 is_stmt 0                @ ../main.c:76:7
	cbz	r0, .LBB4_4
	b	.LBB4_3
.LBB4_3:                                @   in Loop: Header=BB4_1 Depth=1
.Ltmp23:
	.loc	1 78 32 is_stmt 1               @ ../main.c:78:32
	ldr	r1, [sp, #4]
	.loc	1 78 5 is_stmt 0                @ ../main.c:78:5
	movw	r0, :lower16:.L.str.2
	movt	r0, :upper16:.L.str.2
	bl	printf
	.loc	1 79 18 is_stmt 1               @ ../main.c:79:18
	movw	r1, :lower16:printf_mutex
	movt	r1, :upper16:printf_mutex
	movs	r0, #0
	str	r0, [r1]
	.loc	1 80 4                          @ ../main.c:80:4
	b	.LBB4_4
.Ltmp24:
.LBB4_4:                                @   in Loop: Header=BB4_1 Depth=1
	.loc	1 81 11                         @ ../main.c:81:11
	ldr	r0, [sp, #4]
	.loc	1 81 9 is_stmt 0                @ ../main.c:81:9
	str	r0, [sp, #8]
	.loc	1 82 3 is_stmt 1                @ ../main.c:82:3
	b	.LBB4_5
.Ltmp25:
.LBB4_5:                                @   in Loop: Header=BB4_1 Depth=1
	.loc	1 70 2                          @ ../main.c:70:2
	b	.LBB4_1
.Ltmp26:
.Lfunc_end4:
	.size	task_idle, .Lfunc_end4-task_idle
	.cfi_endproc
	.cantunwind
	.fnend
                                        @ -- End function
	.section	.text.main,"ax",%progbits
	.hidden	main                            @ -- Begin function main
	.globl	main
	.p2align	2
	.type	main,%function
	.code	16                              @ @main
	.thumb_func
main:
.Lfunc_begin5:
	.loc	1 87 0                          @ ../main.c:87:0
	.fnstart
	.cfi_startproc
@ %bb.0:
	.save	{r7, lr}
	push	{r7, lr}
	.cfi_def_cfa_offset 8
	.cfi_offset lr, -4
	.cfi_offset r7, -8
	.pad	#32
	sub	sp, #32
	.cfi_def_cfa_offset 40
	movs	r0, #0
	str	r0, [sp, #24]                   @ 4-byte Spill
	str	r0, [sp, #28]
.Ltmp27:
	.loc	1 89 2 prologue_end             @ ../main.c:89:2
	bl	SystemCoreClockUpdate
	ldr	r0, [sp, #24]                   @ 4-byte Reload
	.loc	1 90 10                         @ ../main.c:90:10
	mov	r2, sp
	str	r0, [r2, #8]
	movs	r1, #5
	str	r1, [r2, #4]
	movw	r1, :lower16:task1_fun
	movt	r1, :upper16:task1_fun
	str	r1, [r2]
	movw	r1, :lower16:stack1
	movt	r1, :upper16:stack1
	movw	r3, :lower16:.L.str.3
	movt	r3, :upper16:.L.str.3
	str	r3, [sp, #20]                   @ 4-byte Spill
	movs	r2, #128
	str	r2, [sp, #16]                   @ 4-byte Spill
	bl	xTaskCreate
	ldr	r2, [sp, #16]                   @ 4-byte Reload
	ldr	r3, [sp, #20]                   @ 4-byte Reload
	mov	r1, r0
	.loc	1 90 8 is_stmt 0                @ ../main.c:90:8
	ldr	r0, [sp, #24]                   @ 4-byte Reload
	movw	r12, :lower16:task1
	movt	r12, :upper16:task1
	str.w	r1, [r12]
	.loc	1 91 10 is_stmt 1               @ ../main.c:91:10
	mov	r12, sp
	movs	r1, #1
	str.w	r1, [r12, #8]
	movs	r1, #10
	str.w	r1, [r12, #4]
	movw	r1, :lower16:task2_fun
	movt	r1, :upper16:task2_fun
	str.w	r1, [r12]
	movw	r1, :lower16:stack2
	movt	r1, :upper16:stack2
	bl	xTaskCreate
	.loc	1 91 8 is_stmt 0                @ ../main.c:91:8
	movw	r1, :lower16:task2
	movt	r1, :upper16:task2
	str	r0, [r1]
	.loc	1 92 18 is_stmt 1               @ ../main.c:92:18
	movw	r0, :lower16:SystemCoreClock
	movt	r0, :upper16:SystemCoreClock
	ldr	r0, [r0]
	movw	r1, #52429
	movt	r1, #52428
	.loc	1 92 33 is_stmt 0               @ ../main.c:92:33
	umull	r1, r0, r0, r1
	lsrs	r0, r0, #3
	.loc	1 92 2                          @ ../main.c:92:2
	bl	vSchedulerStart
	ldr	r0, [sp, #24]                   @ 4-byte Reload
	.loc	1 93 2 is_stmt 1                @ ../main.c:93:2
	add	sp, #32
	pop	{r7, pc}
.Ltmp28:
.Lfunc_end5:
	.size	main, .Lfunc_end5-main
	.cfi_endproc
	.cantunwind
	.fnend
                                        @ -- End function
	.type	.L.str,%object                  @ @.str
	.section	.rodata.str1.1,"aMS",%progbits,1
.L.str:
	.asciz	"task1 running:%d\n"
	.size	.L.str, 18

	.type	.L.str.1,%object                @ @.str.1
.L.str.1:
	.asciz	"task2 running:%d\n"
	.size	.L.str.1, 18

	.hidden	printf_mutex                    @ @printf_mutex
	.type	printf_mutex,%object
	.section	.bss.printf_mutex,"aw",%nobits
	.globl	printf_mutex
	.p2align	2, 0x0
printf_mutex:
	.long	0                               @ 0x0
	.size	printf_mutex, 4

	.type	.L.str.2,%object                @ @.str.2
	.section	.rodata.str1.1,"aMS",%progbits,1
.L.str.2:
	.asciz	"idle running:%d\n"
	.size	.L.str.2, 17

	.hidden	stack1                          @ @stack1
	.type	stack1,%object
	.section	.bss.stack1,"aw",%nobits
	.globl	stack1
	.p2align	2, 0x0
stack1:
	.zero	512
	.size	stack1, 512

	.type	.L.str.3,%object                @ @.str.3
	.section	.rodata.str1.1,"aMS",%progbits,1
.L.str.3:
	.asciz	"test"
	.size	.L.str.3, 5

	.hidden	task1                           @ @task1
	.type	task1,%object
	.section	.bss.task1,"aw",%nobits
	.globl	task1
	.p2align	2, 0x0
task1:
	.long	0                               @ 0x0
	.size	task1, 4

	.hidden	stack2                          @ @stack2
	.type	stack2,%object
	.section	.bss.stack2,"aw",%nobits
	.globl	stack2
	.p2align	2, 0x0
stack2:
	.zero	512
	.size	stack2, 512

	.hidden	task2                           @ @task2
	.type	task2,%object
	.section	.bss.task2,"aw",%nobits
	.globl	task2
	.p2align	2, 0x0
task2:
	.long	0                               @ 0x0
	.size	task2, 4

	.type	__ARM_use_no_argv,%object       @ @__ARM_use_no_argv
	.section	.ARM.use_no_argv,"awR",%progbits,unique,1
	.globl	__ARM_use_no_argv
	.p2align	2, 0x0
__ARM_use_no_argv:
	.long	1                               @ 0x1
	.size	__ARM_use_no_argv, 4

	.file	5 "C:\\Keil_v5\\ARM\\ARMCLANG\\Bin\\..\\include" "stdio.h"
	.section	".note.GNU-stack","",%progbits
	.eabi_attribute	30, 6	@ Tag_ABI_optimization_goals
	.ARM_attribute	16, 1	@ Tag_AV_eba