	.text
	.syntax unified
	.eabi_attribute	67, "2.09"	@ Tag_conformance
	.cpu	cortex-m3
	.eabi_attribute	6, 10	@ Tag_CPU_arch
	.eabi_attribute	7, 77	@ Tag_CPU_arch_profile
	.eabi_attribute	8, 0	@ Tag_ARM_ISA_use
	.eabi_attribute	9, 2	@ Tag_THUMB_ISA_use
	.eabi_attribute	34, 1	@ Tag_CPU_unaligned_access
	.eabi_attribute	17, 1	@ Tag_ABI_PCS_GOT_use
	.eabi_attribute	20, 2	@ Tag_ABI_FP_denormal
	.eabi_attribute	21, 0	@ Tag_ABI_FP_exceptions
	.eabi_attribute	23, 1	@ Tag_ABI_FP_number_model
	.eabi_attribute	24, 1	@ Tag_ABI_align_needed
	.eabi_attribute	25, 1	@ Tag_ABI_align_preserved
	.eabi_attribute	38, 1	@ Tag_ABI_FP_16bit_format
	.eabi_attribute	18, 2	@ Tag_ABI_PCS_wchar_t
	.eabi_attribute	26, 1	@ Tag_ABI_enum_size
	.eabi_attribute	14, 0	@ Tag_ABI_PCS_R9_use
	.file	"scheduler.c"
	.file	1 "C:\\Users\\wilson\\program\\project\\task_scheduler\\mdk5" "../src/scheduler.c"
	.file	2 "C:\\Keil_v5\\ARM\\ARMCLANG\\Bin\\..\\include" "stdint.h"
	.file	3 "C:\\Users\\wilson\\program\\project\\task_scheduler\\mdk5" "../src/../inc/task.h"
	.file	4 "C:\\Users\\wilson\\program\\project\\task_scheduler\\mdk5" "../src/../cmsis_device_f1/Include/stm32f103x6.h"
	.file	5 "C:/Users/wilson/AppData/Roaming/CMSIS-Packs/ARM/CMSIS/5.9.0/CMSIS/Core/Include" "core_cm3.h"
	.section	.text.ucScheduleInit,"ax",%progbits
	.hidden	ucScheduleInit                  @ -- Begin function ucScheduleInit
	.globl	ucScheduleInit
	.p2align	2
	.type	ucScheduleInit,%function
	.code	16                              @ @ucScheduleInit
	.thumb_func
ucScheduleInit:
.Lfunc_begin0:
	.loc	1 15 0                          @ ../src/scheduler.c:15:0
	.fnstart
	.cfi_sections .debug_frame
	.cfi_startproc
@ %bb.0:
	.pad	#4
	sub	sp, #4
	.cfi_def_cfa_offset 4
	str	r0, [sp]
	movs	r0, #0
.Ltmp0:
	.loc	1 17 5 prologue_end             @ ../src/scheduler.c:17:5
	add	sp, #4
	bx	lr
.Ltmp1:
.Lfunc_end0:
	.size	ucScheduleInit, .Lfunc_end0-ucScheduleInit
	.cfi_endproc
	.cantunwind
	.fnend
                                        @ -- End function
	.section	.text.vSchedulerStart,"ax",%progbits
	.hidden	vSchedulerStart                 @ -- Begin function vSchedulerStart
	.globl	vSchedulerStart
	.p2align	2
	.type	vSchedulerStart,%function
	.code	16                              @ @vSchedulerStart
	.thumb_func
vSchedulerStart:
.Lfunc_begin1:
	.loc	1 20 0                          @ ../src/scheduler.c:20:0
	.fnstart
	.cfi_startproc
@ %bb.0:
	.save	{r7, lr}
	push	{r7, lr}
	.cfi_def_cfa_offset 8
	.cfi_offset lr, -4
	.cfi_offset r7, -8
	.pad	#32
	sub	sp, #32
	.cfi_def_cfa_offset 40
	str	r0, [sp, #28]
.Ltmp2:
	.file	6 "C:/Users/wilson/AppData/Roaming/CMSIS-Packs/ARM/CMSIS/5.9.0/CMSIS/Core/Include" "cmsis_armclang.h"
	.loc	6 752 3 prologue_end            @ C:/Users/wilson/AppData/Roaming/CMSIS-Packs/ARM/CMSIS/5.9.0/CMSIS/Core/Include/cmsis_armclang.h:752:3
	@APP
	cpsid i
	@NO_APP
	movs	r0, #3
.Ltmp3:
	.loc	1 22 5                          @ ../src/scheduler.c:22:5
	bl	__NVIC_SetPriorityGrouping
	.loc	1 23 17                         @ ../src/scheduler.c:23:17
	ldr	r0, [sp, #28]
	.loc	1 23 2 is_stmt 0                @ ../src/scheduler.c:23:2
	bl	SysTick_Config
	mvn	r0, #1
	str	r0, [sp, #16]                   @ 4-byte Spill
	movs	r1, #15
	.loc	1 24 5 is_stmt 1                @ ../src/scheduler.c:24:5
	str	r1, [sp, #20]                   @ 4-byte Spill
	bl	__NVIC_SetPriority
	ldr	r0, [sp, #16]                   @ 4-byte Reload
	.loc	1 25 5                          @ ../src/scheduler.c:25:5
	bl	__NVIC_EnableIRQ
	ldr	r1, [sp, #20]                   @ 4-byte Reload
	mvn	r0, #4
	.loc	1 26 2                          @ ../src/scheduler.c:26:2
	str	r0, [sp, #24]                   @ 4-byte Spill
	bl	__NVIC_SetPriority
	ldr	r0, [sp, #24]                   @ 4-byte Reload
	.loc	1 27 5                          @ ../src/scheduler.c:27:5
	bl	__NVIC_EnableIRQ
	.loc	1 28 2                          @ ../src/scheduler.c:28:2
	mov	r1, sp
	movs	r0, #31
	str	r0, [r1, #8]
	movs	r0, #5
	str	r0, [r1, #4]
	movw	r0, :lower16:task_idle
	movt	r0, :upper16:task_idle
	str	r0, [r1]
	movw	r1, :lower16:task_idle_stk
	movt	r1, :upper16:task_idle_stk
	movw	r3, :lower16:.L.str
	movt	r3, :upper16:.L.str
	movs	r0, #0
	movs	r2, #128
	bl	xTaskCreate
	.loc	1 29 5                          @ ../src/scheduler.c:29:5
	bl	vGetHighestPrioReadyTask
	.loc	1 31 13                         @ ../src/scheduler.c:31:13
	movw	r0, :lower16:pxCurActiveTask
	movt	r0, :upper16:pxCurActiveTask
	ldr	r0, [r0]
	.loc	1 31 2 is_stmt 0                @ ../src/scheduler.c:31:2
	bl	vStartTask
	.loc	1 32 1 is_stmt 1                @ ../src/scheduler.c:32:1
	add	sp, #32
	pop	{r7, pc}
.Ltmp4:
.Lfunc_end1:
	.size	vSchedulerStart, .Lfunc_end1-vSchedulerStart
	.cfi_endproc
	.cantunwind
	.fnend
                                        @ -- End function
	.section	.text.__NVIC_SetPriorityGrouping,"ax",%progbits
	.p2align	2                               @ -- Begin function __NVIC_SetPriorityGrouping
	.type	__NVIC_SetPriorityGrouping,%function
	.code	16                              @ @__NVIC_SetPriorityGrouping
	.thumb_func
__NVIC_SetPriorityGrouping:
.Lfunc_begin2:
	.loc	5 1478 0                        @ C:/Users/wilson/AppData/Roaming/CMSIS-Packs/ARM/CMSIS/5.9.0/CMSIS/Core/Include\core_cm3.h:1478:0
	.fnstart
	.cfi_startproc
@ %bb.0:
	.pad	#12
	sub	sp, #12
	.cfi_def_cfa_offset 12
	str	r0, [sp, #8]
.Ltmp5:
	.loc	5 1480 32 prologue_end          @ C:/Users/wilson/AppData/Roaming/CMSIS-Packs/ARM/CMSIS/5.9.0/CMSIS/Core/Include\core_cm3.h:1480:32
	ldr	r0, [sp, #8]
	.loc	5 1480 46 is_stmt 0             @ C:/Users/wilson/AppData/Roaming/CMSIS-Packs/ARM/CMSIS/5.9.0/CMSIS/Core/Include\core_cm3.h:1480:46
	and	r0, r0, #7
	.loc	5 1480 12                       @ C:/Users/wilson/AppData/Roaming/CMSIS-Packs/ARM/CMSIS/5.9.0/CMSIS/Core/Include\core_cm3.h:1480:12
	str	r0, [sp]
	movw	r1, #60684
	movt	r1, #57344
	.loc	5 1482 22 is_stmt 1             @ C:/Users/wilson/AppData/Roaming/CMSIS-Packs/ARM/CMSIS/5.9.0/CMSIS/Core/Include\core_cm3.h:1482:22
	ldr	r0, [r1]
	.loc	5 1482 14 is_stmt 0             @ C:/Users/wilson/AppData/Roaming/CMSIS-Packs/ARM/CMSIS/5.9.0/CMSIS/Core/Include\core_cm3.h:1482:14
	str	r0, [sp, #4]
	.loc	5 1483 13 is_stmt 1             @ C:/Users/wilson/AppData/Roaming/CMSIS-Packs/ARM/CMSIS/5.9.0/CMSIS/Core/Include\core_cm3.h:1483:13
	ldr	r0, [sp, #4]
	movw	r2, #63743
	ands	r0, r2
	str	r0, [sp, #4]
	.loc	5 1484 18                       @ C:/Users/wilson/AppData/Roaming/CMSIS-Packs/ARM/CMSIS/5.9.0/CMSIS/Core/Include\core_cm3.h:1484:18
	ldr	r0, [sp, #4]
	.loc	5 1486 18                       @ C:/Users/wilson/AppData/Roaming/CMSIS-Packs/ARM/CMSIS/5.9.0/CMSIS/Core/Include\core_cm3.h:1486:18
	ldr	r2, [sp]
	.loc	5 1484 62                       @ C:/Users/wilson/AppData/Roaming/CMSIS-Packs/ARM/CMSIS/5.9.0/CMSIS/Core/Include\core_cm3.h:1484:62
	orr.w	r0, r0, r2, lsl #8
	movs	r2, #0
	movt	r2, #1530
	.loc	5 1485 62                       @ C:/Users/wilson/AppData/Roaming/CMSIS-Packs/ARM/CMSIS/5.9.0/CMSIS/Core/Include\core_cm3.h:1485:62
	orrs	r0, r2
	.loc	5 1484 14                       @ C:/Users/wilson/AppData/Roaming/CMSIS-Packs/ARM/CMSIS/5.9.0/CMSIS/Core/Include\core_cm3.h:1484:14
	str	r0, [sp, #4]
	.loc	5 1487 17                       @ C:/Users/wilson/AppData/Roaming/CMSIS-Packs/ARM/CMSIS/5.9.0/CMSIS/Core/Include\core_cm3.h:1487:17
	ldr	r0, [sp, #4]
	.loc	5 1487 14 is_stmt 0             @ C:/Users/wilson/AppData/Roaming/CMSIS-Packs/ARM/CMSIS/5.9.0/CMSIS/Core/Include\core_cm3.h:1487:14
	str	r0, [r1]
	.loc	5 1488 1 is_stmt 1              @ C:/Users/wilson/AppData/Roaming/CMSIS-Packs/ARM/CMSIS/5.9.0/CMSIS/Core/Include\core_cm3.h:1488:1
	add	sp, #12
	bx	lr
.Ltmp6:
.Lfunc_end2:
	.size	__NVIC_SetPriorityGrouping, .Lfunc_end2-__NVIC_SetPriorityGrouping
	.cfi_endproc
	.cantunwind
	.fnend
                                        @ -- End function
	.section	.text.SysTick_Config,"ax",%progbits
	.p2align	2                               @ -- Begin function SysTick_Config
	.type	SysTick_Config,%function
	.code	16                              @ @SysTick_Config
	.thumb_func
SysTick_Config:
.Lfunc_begin3:
	.loc	5 1837 0                        @ C:/Users/wilson/AppData/Roaming/CMSIS-Packs/ARM/CMSIS/5.9.0/CMSIS/Core/Include\core_cm3.h:1837:0
	.fnstart
	.cfi_startproc
@ %bb.0:
	.save	{r7, lr}
	push	{r7, lr}
	.cfi_def_cfa_offset 8
	.cfi_offset lr, -4
	.cfi_offset r7, -8
	.pad	#8
	sub	sp, #8
	.cfi_def_cfa_offset 16
	str	r0, [sp]
.Ltmp7:
	.loc	5 1838 8 prologue_end           @ C:/Users/wilson/AppData/Roaming/CMSIS-Packs/ARM/CMSIS/5.9.0/CMSIS/Core/Include\core_cm3.h:1838:8
	ldr	r0, [sp]
	.loc	5 1838 14 is_stmt 0             @ C:/Users/wilson/AppData/Roaming/CMSIS-Packs/ARM/CMSIS/5.9.0/CMSIS/Core/Include\core_cm3.h:1838:14
	subs	r0, #1
.Ltmp8:
	.loc	5 1838 7                        @ C:/Users/wilson/AppData/Roaming/CMSIS-Packs/ARM/CMSIS/5.9.0/CMSIS/Core/Include\core_cm3.h:1838:7
	cmp.w	r0, #16777216
	blo	.LBB3_2
	b	.LBB3_1
.LBB3_1:
	.loc	5 0 7                           @ C:/Users/wilson/AppData/Roaming/CMSIS-Packs/ARM/CMSIS/5.9.0/CMSIS/Core/Include\core_cm3.h:0:7
	movs	r0, #1
.Ltmp9:
	.loc	5 1840 5 is_stmt 1              @ C:/Users/wilson/AppData/Roaming/CMSIS-Packs/ARM/CMSIS/5.9.0/CMSIS/Core/Include\core_cm3.h:1840:5
	str	r0, [sp, #4]
	b	.LBB3_3
.Ltmp10:
.LBB3_2:
	.loc	5 1843 31                       @ C:/Users/wilson/AppData/Roaming/CMSIS-Packs/ARM/CMSIS/5.9.0/CMSIS/Core/Include\core_cm3.h:1843:31
	ldr	r0, [sp]
	.loc	5 1843 37 is_stmt 0             @ C:/Users/wilson/AppData/Roaming/CMSIS-Packs/ARM/CMSIS/5.9.0/CMSIS/Core/Include\core_cm3.h:1843:37
	subs	r0, #1
	movw	r1, #57364
	movt	r1, #57344
	.loc	5 1843 18                       @ C:/Users/wilson/AppData/Roaming/CMSIS-Packs/ARM/CMSIS/5.9.0/CMSIS/Core/Include\core_cm3.h:1843:18
	str	r0, [r1]
	mov.w	r0, #-1
	movs	r1, #15
	.loc	5 1844 3 is_stmt 1              @ C:/Users/wilson/AppData/Roaming/CMSIS-Packs/ARM/CMSIS/5.9.0/CMSIS/Core/Include\core_cm3.h:1844:3
	bl	__NVIC_SetPriority
	movw	r1, #57368
	movt	r1, #57344
	movs	r0, #0
	.loc	5 1845 18                       @ C:/Users/wilson/AppData/Roaming/CMSIS-Packs/ARM/CMSIS/5.9.0/CMSIS/Core/Include\core_cm3.h:1845:18
	str	r0, [r1]
	movw	r2, #57360
	movt	r2, #57344
	movs	r1, #7
	.loc	5 1846 18                       @ C:/Users/wilson/AppData/Roaming/CMSIS-Packs/ARM/CMSIS/5.9.0/CMSIS/Core/Include\core_cm3.h:1846:18
	str	r1, [r2]
	.loc	5 1849 3                        @ C:/Users/wilson/AppData/Roaming/CMSIS-Packs/ARM/CMSIS/5.9.0/CMSIS/Core/Include\core_cm3.h:1849:3
	str	r0, [sp, #4]
	b	.LBB3_3
.LBB3_3:
	.loc	5 1850 1                        @ C:/Users/wilson/AppData/Roaming/CMSIS-Packs/ARM/CMSIS/5.9.0/CMSIS/Core/Include\core_cm3.h:1850:1
	ldr	r0, [sp, #4]
	add	sp, #8
	pop	{r7, pc}
.Ltmp11:
.Lfunc_end3:
	.size	SysTick_Config, .Lfunc_end3-SysTick_Config
	.cfi_endproc
	.cantunwind
	.fnend
                                        @ -- End function
	.section	.text.__NVIC_SetPriority,"ax",%progbits
	.p2align	2                               @ -- Begin function __NVIC_SetPriority
	.type	__NVIC_SetPriority,%function
	.code	16                              @ @__NVIC_SetPriority
	.thumb_func
__NVIC_SetPriority:
.Lfunc_begin4:
	.loc	5 1639 0                        @ C:/Users/wilson/AppData/Roaming/CMSIS-Packs/ARM/CMSIS/5.9.0/CMSIS/Core/Include\core_cm3.h:1639:0
	.fnstart
	.cfi_startproc
@ %bb.0:
	.pad	#8
	sub	sp, #8
	.cfi_def_cfa_offset 8
                                        @ kill: def $r2 killed $r0
	strb.w	r0, [sp, #7]
	str	r1, [sp]
.Ltmp12:
	.loc	5 1640 17 prologue_end          @ C:/Users/wilson/AppData/Roaming/CMSIS-Packs/ARM/CMSIS/5.9.0/CMSIS/Core/Include\core_cm3.h:1640:17
	ldrsb.w	r0, [sp, #7]
.Ltmp13:
	.loc	5 1640 7 is_stmt 0              @ C:/Users/wilson/AppData/Roaming/CMSIS-Packs/ARM/CMSIS/5.9.0/CMSIS/Core/Include\core_cm3.h:1640:7
	cmp	r0, #0
	bmi	.LBB4_2
	b	.LBB4_1
.LBB4_1:
.Ltmp14:
	.loc	5 1642 59 is_stmt 1             @ C:/Users/wilson/AppData/Roaming/CMSIS-Packs/ARM/CMSIS/5.9.0/CMSIS/Core/Include\core_cm3.h:1642:59
	ldr	r0, [sp]
	.loc	5 1642 68 is_stmt 0             @ C:/Users/wilson/AppData/Roaming/CMSIS-Packs/ARM/CMSIS/5.9.0/CMSIS/Core/Include\core_cm3.h:1642:68
	lsls	r0, r0, #4
	.loc	5 1642 25                       @ C:/Users/wilson/AppData/Roaming/CMSIS-Packs/ARM/CMSIS/5.9.0/CMSIS/Core/Include\core_cm3.h:1642:25
	ldrsb.w	r1, [sp, #7]
	movw	r2, #58368
	movt	r2, #57344
	.loc	5 1642 46                       @ C:/Users/wilson/AppData/Roaming/CMSIS-Packs/ARM/CMSIS/5.9.0/CMSIS/Core/Include\core_cm3.h:1642:46
	strb	r0, [r1, r2]
	.loc	5 1643 3 is_stmt 1              @ C:/Users/wilson/AppData/Roaming/CMSIS-Packs/ARM/CMSIS/5.9.0/CMSIS/Core/Include\core_cm3.h:1643:3
	b	.LBB4_3
.Ltmp15:
.LBB4_2:
	.loc	5 1646 59                       @ C:/Users/wilson/AppData/Roaming/CMSIS-Packs/ARM/CMSIS/5.9.0/CMSIS/Core/Include\core_cm3.h:1646:59
	ldr	r0, [sp]
	.loc	5 1646 68 is_stmt 0             @ C:/Users/wilson/AppData/Roaming/CMSIS-Packs/ARM/CMSIS/5.9.0/CMSIS/Core/Include\core_cm3.h:1646:68
	lsls	r0, r0, #4
	.loc	5 1646 16                       @ C:/Users/wilson/AppData/Roaming/CMSIS-Packs/ARM/CMSIS/5.9.0/CMSIS/Core/Include\core_cm3.h:1646:16
	ldrb.w	r1, [sp, #7]
	.loc	5 1646 32                       @ C:/Users/wilson/AppData/Roaming/CMSIS-Packs/ARM/CMSIS/5.9.0/CMSIS/Core/Include\core_cm3.h:1646:32
	and	r1, r1, #15
	movw	r2, #60692
	movt	r2, #57344
	.loc	5 1646 46                       @ C:/Users/wilson/AppData/Roaming/CMSIS-Packs/ARM/CMSIS/5.9.0/CMSIS/Core/Include\core_cm3.h:1646:46
	strb	r0, [r1, r2]
	b	.LBB4_3
.Ltmp16:
.LBB4_3:
	.loc	5 1648 1 is_stmt 1              @ C:/Users/wilson/AppData/Roaming/CMSIS-Packs/ARM/CMSIS/5.9.0/CMSIS/Core/Include\core_cm3.h:1648:1
	add	sp, #8
	bx	lr
.Ltmp17:
.Lfunc_end4:
	.size	__NVIC_SetPriority, .Lfunc_end4-__NVIC_SetPriority
	.cfi_endproc
	.cantunwind
	.fnend
                                        @ -- End function
	.section	.text.__NVIC_EnableIRQ,"ax",%progbits
	.p2align	2                               @ -- Begin function __NVIC_EnableIRQ
	.type	__NVIC_EnableIRQ,%function
	.code	16                              @ @__NVIC_EnableIRQ
	.thumb_func
__NVIC_EnableIRQ:
.Lfunc_begin5:
	.loc	5 1509 0                        @ C:/Users/wilson/AppData/Roaming/CMSIS-Packs/ARM/CMSIS/5.9.0/CMSIS/Core/Include\core_cm3.h:1509:0
	.fnstart
	.cfi_startproc
@ %bb.0:
	.pad	#4
	sub	sp, #4
	.cfi_def_cfa_offset 4
                                        @ kill: def $r1 killed $r0
	strb.w	r0, [sp, #3]
.Ltmp18:
	.loc	5 1510 17 prologue_end          @ C:/Users/wilson/AppData/Roaming/CMSIS-Packs/ARM/CMSIS/5.9.0/CMSIS/Core/Include\core_cm3.h:1510:17
	ldrsb.w	r0, [sp, #3]
.Ltmp19:
	.loc	5 1510 7 is_stmt 0              @ C:/Users/wilson/AppData/Roaming/CMSIS-Packs/ARM/CMSIS/5.9.0/CMSIS/Core/Include\core_cm3.h:1510:7
	cmp	r0, #0
	bmi	.LBB5_2
	b	.LBB5_1
.LBB5_1:
.Ltmp20:
	.loc	5 1512 5 is_stmt 1              @ C:/Users/wilson/AppData/Roaming/CMSIS-Packs/ARM/CMSIS/5.9.0/CMSIS/Core/Include\core_cm3.h:1512:5
	@APP
	@NO_APP
	.loc	5 1513 75                       @ C:/Users/wilson/AppData/Roaming/CMSIS-Packs/ARM/CMSIS/5.9.0/CMSIS/Core/Include\core_cm3.h:1513:75
	ldrsb.w	r1, [sp, #3]
	.loc	5 1513 81 is_stmt 0             @ C:/Users/wilson/AppData/Roaming/CMSIS-Packs/ARM/CMSIS/5.9.0/CMSIS/Core/Include\core_cm3.h:1513:81
	and	r2, r1, #31
	movs	r0, #1
	.loc	5 1513 60                       @ C:/Users/wilson/AppData/Roaming/CMSIS-Packs/ARM/CMSIS/5.9.0/CMSIS/Core/Include\core_cm3.h:1513:60
	lsls	r0, r2
	.loc	5 1513 5                        @ C:/Users/wilson/AppData/Roaming/CMSIS-Packs/ARM/CMSIS/5.9.0/CMSIS/Core/Include\core_cm3.h:1513:5
	lsrs	r2, r1, #5
	movw	r1, #57600
	movt	r1, #57344
	.loc	5 1513 43                       @ C:/Users/wilson/AppData/Roaming/CMSIS-Packs/ARM/CMSIS/5.9.0/CMSIS/Core/Include\core_cm3.h:1513:43
	str.w	r0, [r1, r2, lsl #2]
	.loc	5 1514 5 is_stmt 1              @ C:/Users/wilson/AppData/Roaming/CMSIS-Packs/ARM/CMSIS/5.9.0/CMSIS/Core/Include\core_cm3.h:1514:5
	@APP
	@NO_APP
	.loc	5 1515 3                        @ C:/Users/wilson/AppData/Roaming/CMSIS-Packs/ARM/CMSIS/5.9.0/CMSIS/Core/Include\core_cm3.h:1515:3
	b	.LBB5_2
.Ltmp21:
.LBB5_2:
	.loc	5 1516 1                        @ C:/Users/wilson/AppData/Roaming/CMSIS-Packs/ARM/CMSIS/5.9.0/CMSIS/Core/Include\core_cm3.h:1516:1
	add	sp, #4
	bx	lr
.Ltmp22:
.Lfunc_end5:
	.size	__NVIC_EnableIRQ, .Lfunc_end5-__NVIC_EnableIRQ
	.cfi_endproc
	.cantunwind
	.fnend
                                        @ -- End function
	.section	.text.vSchedulerRun,"ax",%progbits
	.hidden	vSchedulerRun                   @ -- Begin function vSchedulerRun
	.globl	vSchedulerRun
	.p2align	2
	.type	vSchedulerRun,%function
	.code	16                              @ @vSchedulerRun
	.thumb_func
vSchedulerRun:
.Lfunc_begin6:
	.loc	1 38 0                          @ ../src/scheduler.c:38:0
	.fnstart
	.cfi_startproc
@ %bb.0:
	.save	{r7, lr}
	push	{r7, lr}
	.cfi_def_cfa_offset 8
	.cfi_offset lr, -4
	.cfi_offset r7, -8
.Ltmp23:
	.loc	1 40 5 prologue_end             @ ../src/scheduler.c:40:5
	bl	TaskManager
	.loc	1 49 1                          @ ../src/scheduler.c:49:1
	pop	{r7, pc}
.Ltmp24:
.Lfunc_end6:
	.size	vSchedulerRun, .Lfunc_end6-vSchedulerRun
	.cfi_endproc
	.cantunwind
	.fnend
                                        @ -- End function
	.section	.text.vContentSwitch,"ax",%progbits
	.hidden	vContentSwitch                  @ -- Begin function vContentSwitch
	.globl	vContentSwitch
	.p2align	2
	.type	vContentSwitch,%function
	.code	16                              @ @vContentSwitch
	.thumb_func
vContentSwitch:
.Lfunc_begin7:
	.loc	1 55 0                          @ ../src/scheduler.c:55:0
	.fnstart
	.cfi_startproc
@ %bb.0:
	.loc	1 60 2 prologue_end             @ ../src/scheduler.c:60:2
	@APP
	svc	#0

	@NO_APP
	.loc	1 63 1                          @ ../src/scheduler.c:63:1
	bx	lr
.Ltmp25:
.Lfunc_end7:
	.size	vContentSwitch, .Lfunc_end7-vContentSwitch
	.cfi_endproc
	.cantunwind
	.fnend
                                        @ -- End function
	.section	.text.ulGetTick,"ax",%progbits
	.hidden	ulGetTick                       @ -- Begin function ulGetTick
	.globl	ulGetTick
	.p2align	2
	.type	ulGetTick,%function
	.code	16                              @ @ulGetTick
	.thumb_func
ulGetTick:
.Lfunc_begin8:
	.loc	1 66 0                          @ ../src/scheduler.c:66:0
	.fnstart
	.cfi_startproc
@ %bb.0:
	.loc	1 67 9 prologue_end             @ ../src/scheduler.c:67:9
	movw	r0, :lower16:g_tick
	movt	r0, :upper16:g_tick
	ldr	r0, [r0]
	.loc	1 67 2 is_stmt 0                @ ../src/scheduler.c:67:2
	bx	lr
.Ltmp26:
.Lfunc_end8:
	.size	ulGetTick, .Lfunc_end8-ulGetTick
	.cfi_endproc
	.cantunwind
	.fnend
                                        @ -- End function
	.section	.text.SysTick_Handler,"ax",%progbits
	.hidden	SysTick_Handler                 @ -- Begin function SysTick_Handler
	.globl	SysTick_Handler
	.p2align	2
	.type	SysTick_Handler,%function
	.code	16                              @ @SysTick_Handler
	.thumb_func
SysTick_Handler:
.Lfunc_begin9:
	.loc	1 70 0 is_stmt 1                @ ../src/scheduler.c:70:0
	.fnstart
	.cfi_startproc
@ %bb.0:
	.loc	1 71 2 prologue_end             @ ../src/scheduler.c:71:2
	@APP
	ldr	r1, g_tick_const
	ldr	r0, [r1]
	adds	r0, r0, #1
	str	r0, [r1]
	mov	r4, lr
	bl	TaskManager
	mov	lr, r4
g_tick_const:
	.long	g_tick

	@NO_APP
.Ltmp27:
	.loc	1 83 5                          @ ../src/scheduler.c:83:5
	movw	r0, :lower16:pxCurActiveTask
	movt	r0, :upper16:pxCurActiveTask
	ldr	r2, [r0]
	.loc	1 83 29 is_stmt 0               @ ../src/scheduler.c:83:29
	ldr	r0, [r2, #20]
	subs	r1, r0, #1
	str	r1, [r2, #20]
.Ltmp28:
	.loc	1 83 5                          @ ../src/scheduler.c:83:5
	cbnz	r0, .LBB9_2
	b	.LBB9_1
.LBB9_1:
.Ltmp29:
	.loc	1 86 30 is_stmt 1               @ ../src/scheduler.c:86:30
	movw	r0, :lower16:pxCurActiveTask
	movt	r0, :upper16:pxCurActiveTask
	ldr	r1, [r0]
	.loc	1 86 47 is_stmt 0               @ ../src/scheduler.c:86:47
	ldr	r0, [r1, #24]
	.loc	1 86 28                         @ ../src/scheduler.c:86:28
	str	r0, [r1, #20]
	movw	r1, #60676
	movt	r1, #57344
	.loc	1 87 13 is_stmt 1               @ ../src/scheduler.c:87:13
	ldr	r0, [r1]
	orr	r0, r0, #268435456
	str	r0, [r1]
	.loc	1 88 5                          @ ../src/scheduler.c:88:5
	b	.LBB9_2
.Ltmp30:
.LBB9_2:
	.loc	1 89 1                          @ ../src/scheduler.c:89:1
	bx	lr
.Ltmp31:
.Lfunc_end9:
	.size	SysTick_Handler, .Lfunc_end9-SysTick_Handler
	.cfi_endproc
	.cantunwind
	.fnend
                                        @ -- End function
	.section	.text.SVC_Handler,"ax",%progbits
	.hidden	SVC_Handler                     @ -- Begin function SVC_Handler
	.globl	SVC_Handler
	.p2align	2
	.type	SVC_Handler,%function
	.code	16                              @ @SVC_Handler
	.thumb_func
SVC_Handler:
.Lfunc_begin10:
	.loc	1 92 0                          @ ../src/scheduler.c:92:0
	.fnstart
	.cfi_startproc
@ %bb.0:
	movw	r1, #60676
	movt	r1, #57344
.Ltmp32:
	.loc	1 104 12 prologue_end           @ ../src/scheduler.c:104:12
	ldr	r0, [r1]
	orr	r0, r0, #268435456
	str	r0, [r1]
	.loc	1 105 1                         @ ../src/scheduler.c:105:1
	bx	lr
.Ltmp33:
.Lfunc_end10:
	.size	SVC_Handler, .Lfunc_end10-SVC_Handler
	.cfi_endproc
	.cantunwind
	.fnend
                                        @ -- End function
	.section	.text.PendSV_Handler,"ax",%progbits
	.hidden	PendSV_Handler                  @ -- Begin function PendSV_Handler
	.globl	PendSV_Handler
	.p2align	2
	.type	PendSV_Handler,%function
	.code	16                              @ @PendSV_Handler
	.thumb_func
PendSV_Handler:
.Lfunc_begin11:
	.loc	1 108 0                         @ ../src/scheduler.c:108:0
	.fnstart
	.cfi_startproc
@ %bb.0:
	.loc	1 110 5 prologue_end            @ ../src/scheduler.c:110:5
	@APP
	mrs	r0, psp
	stmdb	r0!, {r4, r5, r6, r7, r8, r9, r10, r11}
	ldr	r4, pxtcbcurconst
	ldr	r4, [r4]
	str	r0, [r4]
	push.w	{r4, r5, r6, r7, r8, r9, r10, r11, lr}
	bl	vGetHighestPrioReadyTask
	pop.w	{r4, r5, r6, r7, r8, r9, r10, r11, lr}
	ldr	r0, pxtcbcurconst
	ldr	r4, [r0]
	ldr	r0, [r4]
	ldm.w	r0!, {r4, r5, r6, r7, r8, r9, r10, r11}
	msr	psp, r0
	dsb	sy
	isb	sy
	bx	lr
	.p2align	4
pxtcbcurconst:
	.long	pxCurActiveTask

	@NO_APP
	.loc	1 141 1                         @ ../src/scheduler.c:141:1
	bx	lr
.Ltmp34:
.Lfunc_end11:
	.size	PendSV_Handler, .Lfunc_end11-PendSV_Handler
	.cfi_endproc
	.cantunwind
	.fnend
                                        @ -- End function
	.type	task_idle_stk,%object           @ @task_idle_stk
	.section	.bss.task_idle_stk,"aw",%nobits
	.p2align	2, 0x0
task_idle_stk:
	.zero	512
	.size	task_idle_stk, 512

	.type	.L.str,%object                  @ @.str
	.section	.rodata.str1.1,"aMS",%progbits,1
.L.str:
	.asciz	"idle"
	.size	.L.str, 5

	.hidden	pxCurActiveTask                 @ @pxCurActiveTask
	.type	pxCurActiveTask,%object
	.section	.bss.pxCurActiveTask,"aw",%nobits
	.globl	pxCurActiveTask
	.p2align	2, 0x0
pxCurActiveTask:
	.long	0
	.size	pxCurActiveTask, 4

	.type	g_tick,%object                  @ @g_tick
	.section	.bss.g_tick,"aw",%nobits
	.p2align	2, 0x0
g_tick:
	.long	0                               @ 0x0
	.size	g_tick, 4

	.hidden	pxTaskIdle                      @ @pxTaskIdle
	.type	pxTaskIdle,%object
	.section	.bss.pxTaskIdle,"aw",%nobits
	.globl	pxTaskIdle
	.p2align	2, 0x0
pxTaskIdle:
	.long	0
	.size	pxTaskIdle, 4

	.hidden	pxReadyTask                     @ @pxReadyTask
	.type	pxReadyTask,%object
	.section	.bss.pxReadyTask,"aw",%nobits
	.globl	pxReadyTask
	.p2align	2, 0x0
pxReadyTask:
	.long	0
	.size	pxReadyTask, 4

	.section	".note.GNU-stack","",%progbits
	.eabi_attribute	30, 6	@ Tag_ABI_optimization_goals
	.ARM_attribute	16, 1	@ Tag_AV_eba