	.text
	.syntax unified
	.eabi_attribute	67, "2.09"	@ Tag_conformance
	.cpu	cortex-m3
	.eabi_attribute	6, 10	@ Tag_CPU_arch
	.eabi_attribute	7, 77	@ Tag_CPU_arch_profile
	.eabi_attribute	8, 0	@ Tag_ARM_ISA_use
	.eabi_attribute	9, 2	@ Tag_THUMB_ISA_use
	.eabi_attribute	34, 1	@ Tag_CPU_unaligned_access
	.eabi_attribute	17, 1	@ Tag_ABI_PCS_GOT_use
	.eabi_attribute	20, 2	@ Tag_ABI_FP_denormal
	.eabi_attribute	21, 0	@ Tag_ABI_FP_exceptions
	.eabi_attribute	23, 1	@ Tag_ABI_FP_number_model
	.eabi_attribute	24, 1	@ Tag_ABI_align_needed
	.eabi_attribute	25, 1	@ Tag_ABI_align_preserved
	.eabi_attribute	38, 1	@ Tag_ABI_FP_16bit_format
	.eabi_attribute	18, 2	@ Tag_ABI_PCS_wchar_t
	.eabi_attribute	26, 1	@ Tag_ABI_enum_size
	.eabi_attribute	14, 0	@ Tag_ABI_PCS_R9_use
	.file	"system_stm32f10x.c"
	.file	1 "C:\\Keil_v5\\ARM\\ARMCLANG\\Bin\\..\\include" "stdint.h"
	.file	2 "C:\\Users\\wilson\\program\\project\\task_scheduler\\mdk5" "RTE/Device/STM32F103C6/system_stm32f10x.c"
	.file	3 "C:/Users/wilson/AppData/Roaming/CMSIS-Packs/Keil/STM32F1xx_DFP/2.4.0/Device/Include" "stm32f10x.h"
	.file	4 "C:/Users/wilson/AppData/Roaming/CMSIS-Packs/ARM/CMSIS/5.9.0/CMSIS/Core/Include" "core_cm3.h"
	.section	.text.SystemInit,"ax",%progbits
	.hidden	SystemInit                      @ -- Begin function SystemInit
	.globl	SystemInit
	.p2align	2
	.type	SystemInit,%function
	.code	16                              @ @SystemInit
	.thumb_func
SystemInit:
.Lfunc_begin0:
	.loc	2 212 0                         @ RTE/Device/STM32F103C6/system_stm32f10x.c:212:0
	.fnstart
	.cfi_sections .debug_frame
	.cfi_startproc
@ %bb.0:
	.save	{r7, lr}
	push	{r7, lr}
	.cfi_def_cfa_offset 8
	.cfi_offset lr, -4
	.cfi_offset r7, -8
	movw	r2, #4096
	movt	r2, #16386
.Ltmp0:
	.loc	2 215 11 prologue_end           @ RTE/Device/STM32F103C6/system_stm32f10x.c:215:11
	ldr	r0, [r2]
	orr	r0, r0, #1
	str	r0, [r2]
	movw	r1, #4100
	movt	r1, #16386
	.loc	2 219 13                        @ RTE/Device/STM32F103C6/system_stm32f10x.c:219:13
	ldr	r0, [r1]
	movs	r3, #0
	movt	r3, #63743
	ands	r0, r3
	str	r0, [r1]
	.loc	2 225 11                        @ RTE/Device/STM32F103C6/system_stm32f10x.c:225:11
	ldr	r0, [r2]
	movw	r3, #65535
	movt	r3, #65270
	ands	r0, r3
	str	r0, [r2]
	.loc	2 228 11                        @ RTE/Device/STM32F103C6/system_stm32f10x.c:228:11
	ldr	r0, [r2]
	bic	r0, r0, #262144
	str	r0, [r2]
	.loc	2 231 13                        @ RTE/Device/STM32F103C6/system_stm32f10x.c:231:13
	ldr	r0, [r1]
	bic	r0, r0, #8323072
	str	r0, [r1]
	movw	r1, #4104
	movt	r1, #16386
	mov.w	r0, #10420224
	.loc	2 250 12                        @ RTE/Device/STM32F103C6/system_stm32f10x.c:250:12
	str	r0, [r1]
	.loc	2 261 3                         @ RTE/Device/STM32F103C6/system_stm32f10x.c:261:3
	bl	SetSysClock
	movw	r1, #60680
	movt	r1, #57344
	mov.w	r0, #134217728
	.loc	2 266 13                        @ RTE/Device/STM32F103C6/system_stm32f10x.c:266:13
	str	r0, [r1]
	.loc	2 268 1                         @ RTE/Device/STM32F103C6/system_stm32f10x.c:268:1
	pop	{r7, pc}
.Ltmp1:
.Lfunc_end0:
	.size	SystemInit, .Lfunc_end0-SystemInit
	.cfi_endproc
	.cantunwind
	.fnend
                                        @ -- End function
	.section	.text.SetSysClock,"ax",%progbits
	.p2align	2                               @ -- Begin function SetSysClock
	.type	SetSysClock,%function
	.code	16                              @ @SetSysClock
	.thumb_func
SetSysClock:
.Lfunc_begin1:
	.loc	2 419 0                         @ RTE/Device/STM32F103C6/system_stm32f10x.c:419:0
	.fnstart
	.cfi_startproc
@ %bb.0:
	.save	{r7, lr}
	push	{r7, lr}
	.cfi_def_cfa_offset 8
	.cfi_offset lr, -4
	.cfi_offset r7, -8
.Ltmp2:
	.loc	2 431 3 prologue_end            @ RTE/Device/STM32F103C6/system_stm32f10x.c:431:3
	bl	SetSysClockTo72
	.loc	2 436 1                         @ RTE/Device/STM32F103C6/system_stm32f10x.c:436:1
	pop	{r7, pc}
.Ltmp3:
.Lfunc_end1:
	.size	SetSysClock, .Lfunc_end1-SetSysClock
	.cfi_endproc
	.cantunwind
	.fnend
                                        @ -- End function
	.section	.text.SystemCoreClockUpdate,"ax",%progbits
	.hidden	SystemCoreClockUpdate           @ -- Begin function SystemCoreClockUpdate
	.globl	SystemCoreClockUpdate
	.p2align	2
	.type	SystemCoreClockUpdate,%function
	.code	16                              @ @SystemCoreClockUpdate
	.thumb_func
SystemCoreClockUpdate:
.Lfunc_begin2:
	.loc	2 306 0                         @ RTE/Device/STM32F103C6/system_stm32f10x.c:306:0
	.fnstart
	.cfi_startproc
@ %bb.0:
	.pad	#16
	sub	sp, #16
	.cfi_def_cfa_offset 16
	movs	r0, #0
.Ltmp4:
	.loc	2 307 12 prologue_end           @ RTE/Device/STM32F103C6/system_stm32f10x.c:307:12
	str	r0, [sp, #12]
	.loc	2 307 21 is_stmt 0              @ RTE/Device/STM32F103C6/system_stm32f10x.c:307:21
	str	r0, [sp, #8]
	.loc	2 307 34                        @ RTE/Device/STM32F103C6/system_stm32f10x.c:307:34
	str	r0, [sp, #4]
	movw	r0, #4100
	movt	r0, #16386
	.loc	2 318 14 is_stmt 1              @ RTE/Device/STM32F103C6/system_stm32f10x.c:318:14
	ldr	r0, [r0]
	.loc	2 318 19 is_stmt 0              @ RTE/Device/STM32F103C6/system_stm32f10x.c:318:19
	and	r0, r0, #12
	.loc	2 318 7                         @ RTE/Device/STM32F103C6/system_stm32f10x.c:318:7
	str	r0, [sp, #12]
	.loc	2 320 11 is_stmt 1              @ RTE/Device/STM32F103C6/system_stm32f10x.c:320:11
	ldr	r0, [sp, #12]
	.loc	2 320 3 is_stmt 0               @ RTE/Device/STM32F103C6/system_stm32f10x.c:320:3
	str	r0, [sp]                        @ 4-byte Spill
	cbz	r0, .LBB2_3
	b	.LBB2_1
.LBB2_1:
	ldr	r0, [sp]                        @ 4-byte Reload
	cmp	r0, #4
	beq	.LBB2_4
	b	.LBB2_2
.LBB2_2:
	ldr	r0, [sp]                        @ 4-byte Reload
	cmp	r0, #8
	beq	.LBB2_5
	b	.LBB2_12
.LBB2_3:
.Ltmp5:
	.loc	2 323 23 is_stmt 1              @ RTE/Device/STM32F103C6/system_stm32f10x.c:323:23
	movw	r1, :lower16:SystemCoreClock
	movt	r1, :upper16:SystemCoreClock
	movw	r0, #4608
	movt	r0, #122
	str	r0, [r1]
	.loc	2 324 7                         @ RTE/Device/STM32F103C6/system_stm32f10x.c:324:7
	b	.LBB2_13
.LBB2_4:
	.loc	2 326 23                        @ RTE/Device/STM32F103C6/system_stm32f10x.c:326:23
	movw	r1, :lower16:SystemCoreClock
	movt	r1, :upper16:SystemCoreClock
	movw	r0, #4608
	movt	r0, #122
	str	r0, [r1]
	.loc	2 327 7                         @ RTE/Device/STM32F103C6/system_stm32f10x.c:327:7
	b	.LBB2_13
.LBB2_5:
	.loc	2 0 7 is_stmt 0                 @ RTE/Device/STM32F103C6/system_stm32f10x.c:0:7
	movw	r0, #4100
	movt	r0, #16386
	.loc	2 331 22 is_stmt 1              @ RTE/Device/STM32F103C6/system_stm32f10x.c:331:22
	ldr	r1, [r0]
	.loc	2 331 27 is_stmt 0              @ RTE/Device/STM32F103C6/system_stm32f10x.c:331:27
	and	r1, r1, #3932160
	.loc	2 331 15                        @ RTE/Device/STM32F103C6/system_stm32f10x.c:331:15
	str	r1, [sp, #8]
	.loc	2 332 24 is_stmt 1              @ RTE/Device/STM32F103C6/system_stm32f10x.c:332:24
	ldr	r0, [r0]
	.loc	2 332 29 is_stmt 0              @ RTE/Device/STM32F103C6/system_stm32f10x.c:332:29
	and	r0, r0, #65536
	.loc	2 332 17                        @ RTE/Device/STM32F103C6/system_stm32f10x.c:332:17
	str	r0, [sp, #4]
	.loc	2 335 19 is_stmt 1              @ RTE/Device/STM32F103C6/system_stm32f10x.c:335:19
	ldr	r1, [sp, #8]
	movs	r0, #2
	.loc	2 335 34 is_stmt 0              @ RTE/Device/STM32F103C6/system_stm32f10x.c:335:34
	add.w	r0, r0, r1, lsr #18
	.loc	2 335 15                        @ RTE/Device/STM32F103C6/system_stm32f10x.c:335:15
	str	r0, [sp, #8]
.Ltmp6:
	.loc	2 337 11 is_stmt 1              @ RTE/Device/STM32F103C6/system_stm32f10x.c:337:11
	ldr	r0, [sp, #4]
.Ltmp7:
	.loc	2 337 11 is_stmt 0              @ RTE/Device/STM32F103C6/system_stm32f10x.c:337:11
	cbnz	r0, .LBB2_7
	b	.LBB2_6
.LBB2_6:
.Ltmp8:
	.loc	2 340 46 is_stmt 1              @ RTE/Device/STM32F103C6/system_stm32f10x.c:340:46
	ldr	r0, [sp, #8]
	movw	r1, #2304
	movt	r1, #61
	.loc	2 340 44 is_stmt 0              @ RTE/Device/STM32F103C6/system_stm32f10x.c:340:44
	muls	r0, r1, r0
	.loc	2 340 25                        @ RTE/Device/STM32F103C6/system_stm32f10x.c:340:25
	movw	r1, :lower16:SystemCoreClock
	movt	r1, :upper16:SystemCoreClock
	str	r0, [r1]
	.loc	2 341 7 is_stmt 1               @ RTE/Device/STM32F103C6/system_stm32f10x.c:341:7
	b	.LBB2_11
.Ltmp9:
.LBB2_7:
	.loc	2 0 7 is_stmt 0                 @ RTE/Device/STM32F103C6/system_stm32f10x.c:0:7
	movw	r0, #4100
	movt	r0, #16386
.Ltmp10:
	.loc	2 350 19 is_stmt 1              @ RTE/Device/STM32F103C6/system_stm32f10x.c:350:19
	ldr	r0, [r0]
.Ltmp11:
	.loc	2 350 13 is_stmt 0              @ RTE/Device/STM32F103C6/system_stm32f10x.c:350:13
	lsls	r0, r0, #14
	cmp	r0, #0
	bpl	.LBB2_9
	b	.LBB2_8
.LBB2_8:
.Ltmp12:
	.loc	2 352 48 is_stmt 1              @ RTE/Device/STM32F103C6/system_stm32f10x.c:352:48
	ldr	r0, [sp, #8]
	movw	r1, #2304
	movt	r1, #61
	.loc	2 352 46 is_stmt 0              @ RTE/Device/STM32F103C6/system_stm32f10x.c:352:46
	muls	r0, r1, r0
	.loc	2 352 27                        @ RTE/Device/STM32F103C6/system_stm32f10x.c:352:27
	movw	r1, :lower16:SystemCoreClock
	movt	r1, :upper16:SystemCoreClock
	str	r0, [r1]
	.loc	2 353 9 is_stmt 1               @ RTE/Device/STM32F103C6/system_stm32f10x.c:353:9
	b	.LBB2_10
.Ltmp13:
.LBB2_9:
	.loc	2 356 41                        @ RTE/Device/STM32F103C6/system_stm32f10x.c:356:41
	ldr	r0, [sp, #8]
	movw	r1, #4608
	movt	r1, #122
	.loc	2 356 39 is_stmt 0              @ RTE/Device/STM32F103C6/system_stm32f10x.c:356:39
	muls	r0, r1, r0
	.loc	2 356 27                        @ RTE/Device/STM32F103C6/system_stm32f10x.c:356:27
	movw	r1, :lower16:SystemCoreClock
	movt	r1, :upper16:SystemCoreClock
	str	r0, [r1]
	b	.LBB2_10
.Ltmp14:
.LBB2_10:
	.loc	2 0 27                          @ RTE/Device/STM32F103C6/system_stm32f10x.c:0:27
	b	.LBB2_11
.LBB2_11:
	.loc	2 399 7 is_stmt 1               @ RTE/Device/STM32F103C6/system_stm32f10x.c:399:7
	b	.LBB2_13
.LBB2_12:
	.loc	2 402 23                        @ RTE/Device/STM32F103C6/system_stm32f10x.c:402:23
	movw	r1, :lower16:SystemCoreClock
	movt	r1, :upper16:SystemCoreClock
	movw	r0, #4608
	movt	r0, #122
	str	r0, [r1]
	.loc	2 403 7                         @ RTE/Device/STM32F103C6/system_stm32f10x.c:403:7
	b	.LBB2_13
.Ltmp15:
.LBB2_13:
	.loc	2 0 7 is_stmt 0                 @ RTE/Device/STM32F103C6/system_stm32f10x.c:0:7
	movw	r0, #4100
	movt	r0, #16386
	.loc	2 408 30 is_stmt 1              @ RTE/Device/STM32F103C6/system_stm32f10x.c:408:30
	ldr	r0, [r0]
	.loc	2 408 35 is_stmt 0              @ RTE/Device/STM32F103C6/system_stm32f10x.c:408:35
	uxtb	r0, r0
	.loc	2 408 52                        @ RTE/Device/STM32F103C6/system_stm32f10x.c:408:52
	lsrs	r1, r0, #4
	.loc	2 408 9                         @ RTE/Device/STM32F103C6/system_stm32f10x.c:408:9
	movw	r0, :lower16:AHBPrescTable
	movt	r0, :upper16:AHBPrescTable
	ldrb	r0, [r0, r1]
	.loc	2 408 7                         @ RTE/Device/STM32F103C6/system_stm32f10x.c:408:7
	str	r0, [sp, #12]
	.loc	2 410 23 is_stmt 1              @ RTE/Device/STM32F103C6/system_stm32f10x.c:410:23
	ldr	r2, [sp, #12]
	.loc	2 410 19 is_stmt 0              @ RTE/Device/STM32F103C6/system_stm32f10x.c:410:19
	movw	r1, :lower16:SystemCoreClock
	movt	r1, :upper16:SystemCoreClock
	ldr	r0, [r1]
	lsrs	r0, r2
	str	r0, [r1]
	.loc	2 411 1 is_stmt 1               @ RTE/Device/STM32F103C6/system_stm32f10x.c:411:1
	add	sp, #16
	bx	lr
.Ltmp16:
.Lfunc_end2:
	.size	SystemCoreClockUpdate, .Lfunc_end2-SystemCoreClockUpdate
	.cfi_endproc
	.cantunwind
	.fnend
                                        @ -- End function
	.section	.text.SetSysClockTo72,"ax",%progbits
	.p2align	2                               @ -- Begin function SetSysClockTo72
	.type	SetSysClockTo72,%function
	.code	16                              @ @SetSysClockTo72
	.thumb_func
SetSysClockTo72:
.Lfunc_begin3:
	.loc	2 987 0                         @ RTE/Device/STM32F103C6/system_stm32f10x.c:987:0
	.fnstart
	.cfi_startproc
@ %bb.0:
	.pad	#16
	sub	sp, #16
	.cfi_def_cfa_offset 16
	movs	r0, #0
.Ltmp17:
	.loc	2 988 17 prologue_end           @ RTE/Device/STM32F103C6/system_stm32f10x.c:988:17
	str	r0, [sp, #12]
	.loc	2 988 37 is_stmt 0              @ RTE/Device/STM32F103C6/system_stm32f10x.c:988:37
	str	r0, [sp, #8]
	movw	r1, #4096
	movt	r1, #16386
	.loc	2 992 11 is_stmt 1              @ RTE/Device/STM32F103C6/system_stm32f10x.c:992:11
	ldr	r0, [r1]
	orr	r0, r0, #65536
	str	r0, [r1]
	.loc	2 995 3                         @ RTE/Device/STM32F103C6/system_stm32f10x.c:995:3
	b	.LBB3_1
.LBB3_1:                                @ =>This Inner Loop Header: Depth=1
	.loc	2 0 3 is_stmt 0                 @ RTE/Device/STM32F103C6/system_stm32f10x.c:0:3
	movw	r0, #4096
	movt	r0, #16386
.Ltmp18:
	.loc	2 997 22 is_stmt 1              @ RTE/Device/STM32F103C6/system_stm32f10x.c:997:22
	ldr	r0, [r0]
	.loc	2 997 25 is_stmt 0              @ RTE/Device/STM32F103C6/system_stm32f10x.c:997:25
	and	r0, r0, #131072
	.loc	2 997 15                        @ RTE/Device/STM32F103C6/system_stm32f10x.c:997:15
	str	r0, [sp, #8]
	.loc	2 998 19 is_stmt 1              @ RTE/Device/STM32F103C6/system_stm32f10x.c:998:19
	ldr	r0, [sp, #12]
	adds	r0, #1
	str	r0, [sp, #12]
	.loc	2 999 3                         @ RTE/Device/STM32F103C6/system_stm32f10x.c:999:3
	b	.LBB3_2
.Ltmp19:
.LBB3_2:                                @   in Loop: Header=BB3_1 Depth=1
	.loc	2 999 12 is_stmt 0              @ RTE/Device/STM32F103C6/system_stm32f10x.c:999:12
	ldr	r1, [sp, #8]
	movs	r0, #0
	.loc	2 999 28                        @ RTE/Device/STM32F103C6/system_stm32f10x.c:999:28
	str	r0, [sp, #4]                    @ 4-byte Spill
	cbnz	r1, .LBB3_4
	b	.LBB3_3
.LBB3_3:                                @   in Loop: Header=BB3_1 Depth=1
	.loc	2 999 32                        @ RTE/Device/STM32F103C6/system_stm32f10x.c:999:32
	ldr	r0, [sp, #12]
	.loc	2 999 47                        @ RTE/Device/STM32F103C6/system_stm32f10x.c:999:47
	subs.w	r0, r0, #1280
	it	ne
	movne	r0, #1
	str	r0, [sp, #4]                    @ 4-byte Spill
	b	.LBB3_4
.LBB3_4:                                @   in Loop: Header=BB3_1 Depth=1
	.loc	2 0 0                           @ RTE/Device/STM32F103C6/system_stm32f10x.c:0:0
	ldr	r0, [sp, #4]                    @ 4-byte Reload
.Ltmp20:
	.loc	2 999 3                         @ RTE/Device/STM32F103C6/system_stm32f10x.c:999:3
	lsls	r0, r0, #31
	cmp	r0, #0
	bne	.LBB3_1
	b	.LBB3_5
.Ltmp21:
.LBB3_5:
	.loc	2 0 3                           @ RTE/Device/STM32F103C6/system_stm32f10x.c:0:3
	movw	r0, #4096
	movt	r0, #16386
.Ltmp22:
	.loc	2 1001 13 is_stmt 1             @ RTE/Device/STM32F103C6/system_stm32f10x.c:1001:13
	ldr	r0, [r0]
.Ltmp23:
	.loc	2 1001 7 is_stmt 0              @ RTE/Device/STM32F103C6/system_stm32f10x.c:1001:7
	lsls	r0, r0, #14
	cmp	r0, #0
	bpl	.LBB3_7
	b	.LBB3_6
.LBB3_6:
	.loc	2 0 7                           @ RTE/Device/STM32F103C6/system_stm32f10x.c:0:7
	movs	r0, #1
.Ltmp24:
	.loc	2 1003 15 is_stmt 1             @ RTE/Device/STM32F103C6/system_stm32f10x.c:1003:15
	str	r0, [sp, #8]
	.loc	2 1004 3                        @ RTE/Device/STM32F103C6/system_stm32f10x.c:1004:3
	b	.LBB3_8
.Ltmp25:
.LBB3_7:
	.loc	2 0 3 is_stmt 0                 @ RTE/Device/STM32F103C6/system_stm32f10x.c:0:3
	movs	r0, #0
.Ltmp26:
	.loc	2 1007 15 is_stmt 1             @ RTE/Device/STM32F103C6/system_stm32f10x.c:1007:15
	str	r0, [sp, #8]
	b	.LBB3_8
.Ltmp27:
.LBB3_8:
	.loc	2 1010 7                        @ RTE/Device/STM32F103C6/system_stm32f10x.c:1010:7
	ldr	r0, [sp, #8]
.Ltmp28:
	.loc	2 1010 7 is_stmt 0              @ RTE/Device/STM32F103C6/system_stm32f10x.c:1010:7
	cmp	r0, #1
	bne	.LBB3_16
	b	.LBB3_9
.LBB3_9:
	.loc	2 0 7                           @ RTE/Device/STM32F103C6/system_stm32f10x.c:0:7
	movw	r1, #8192
	movt	r1, #16386
.Ltmp29:
	.loc	2 1013 16 is_stmt 1             @ RTE/Device/STM32F103C6/system_stm32f10x.c:1013:16
	ldr	r0, [r1]
	orr	r0, r0, #16
	str	r0, [r1]
	.loc	2 1016 16                       @ RTE/Device/STM32F103C6/system_stm32f10x.c:1016:16
	ldr	r0, [r1]
	bic	r0, r0, #7
	str	r0, [r1]
	.loc	2 1017 16                       @ RTE/Device/STM32F103C6/system_stm32f10x.c:1017:16
	ldr	r0, [r1]
	orr	r0, r0, #2
	str	r0, [r1]
	movw	r1, #4100
	movt	r1, #16386
	.loc	2 1021 15                       @ RTE/Device/STM32F103C6/system_stm32f10x.c:1021:15
	str	r1, [sp]                        @ 4-byte Spill
	ldr	r0, [r1]
	str	r0, [r1]
	.loc	2 1024 15                       @ RTE/Device/STM32F103C6/system_stm32f10x.c:1024:15
	ldr	r0, [r1]
	str	r0, [r1]
	.loc	2 1027 15                       @ RTE/Device/STM32F103C6/system_stm32f10x.c:1027:15
	ldr	r0, [r1]
	orr	r0, r0, #1024
	str	r0, [r1]
	.loc	2 1053 15                       @ RTE/Device/STM32F103C6/system_stm32f10x.c:1053:15
	ldr	r0, [r1]
	bic	r0, r0, #4128768
	str	r0, [r1]
	.loc	2 1055 15                       @ RTE/Device/STM32F103C6/system_stm32f10x.c:1055:15
	ldr	r0, [r1]
	orr	r0, r0, #1900544
	str	r0, [r1]
	movw	r1, #4096
	movt	r1, #16386
	.loc	2 1059 13                       @ RTE/Device/STM32F103C6/system_stm32f10x.c:1059:13
	ldr	r0, [r1]
	orr	r0, r0, #16777216
	str	r0, [r1]
	.loc	2 1062 5                        @ RTE/Device/STM32F103C6/system_stm32f10x.c:1062:5
	b	.LBB3_10
.LBB3_10:                               @ =>This Inner Loop Header: Depth=1
	.loc	2 0 5 is_stmt 0                 @ RTE/Device/STM32F103C6/system_stm32f10x.c:0:5
	movw	r0, #4096
	movt	r0, #16386
	.loc	2 1062 17                       @ RTE/Device/STM32F103C6/system_stm32f10x.c:1062:17
	ldr	r0, [r0]
	.loc	2 1062 5                        @ RTE/Device/STM32F103C6/system_stm32f10x.c:1062:5
	lsls	r0, r0, #6
	cmp	r0, #0
	bmi	.LBB3_12
	b	.LBB3_11
.LBB3_11:                               @   in Loop: Header=BB3_10 Depth=1
	b	.LBB3_10
.LBB3_12:
	.loc	2 0 5                           @ RTE/Device/STM32F103C6/system_stm32f10x.c:0:5
	movw	r1, #4100
	movt	r1, #16386
	.loc	2 1067 15 is_stmt 1             @ RTE/Device/STM32F103C6/system_stm32f10x.c:1067:15
	ldr	r0, [r1]
	bic	r0, r0, #3
	str	r0, [r1]
	.loc	2 1068 15                       @ RTE/Device/STM32F103C6/system_stm32f10x.c:1068:15
	ldr	r0, [r1]
	orr	r0, r0, #2
	str	r0, [r1]
	.loc	2 1071 5                        @ RTE/Device/STM32F103C6/system_stm32f10x.c:1071:5
	b	.LBB3_13
.LBB3_13:                               @ =>This Inner Loop Header: Depth=1
	.loc	2 0 5 is_stmt 0                 @ RTE/Device/STM32F103C6/system_stm32f10x.c:0:5
	movw	r0, #4100
	movt	r0, #16386
	.loc	2 1071 18                       @ RTE/Device/STM32F103C6/system_stm32f10x.c:1071:18
	ldr	r0, [r0]
	.loc	2 1071 23                       @ RTE/Device/STM32F103C6/system_stm32f10x.c:1071:23
	and	r0, r0, #12
	.loc	2 1071 5                        @ RTE/Device/STM32F103C6/system_stm32f10x.c:1071:5
	cmp	r0, #8
	beq	.LBB3_15
	b	.LBB3_14
.LBB3_14:                               @   in Loop: Header=BB3_13 Depth=1
	b	.LBB3_13
.LBB3_15:
	.loc	2 1074 3 is_stmt 1              @ RTE/Device/STM32F103C6/system_stm32f10x.c:1074:3
	b	.LBB3_17
.Ltmp30:
.LBB3_16:
	.loc	2 0 3 is_stmt 0                 @ RTE/Device/STM32F103C6/system_stm32f10x.c:0:3
	b	.LBB3_17
.LBB3_17:
	.loc	2 1079 1 is_stmt 1              @ RTE/Device/STM32F103C6/system_stm32f10x.c:1079:1
	add	sp, #16
	bx	lr
.Ltmp31:
.Lfunc_end3:
	.size	SetSysClockTo72, .Lfunc_end3-SetSysClockTo72
	.cfi_endproc
	.cantunwind
	.fnend
                                        @ -- End function
	.hidden	SystemCoreClock                 @ @SystemCoreClock
	.type	SystemCoreClock,%object
	.section	.data.SystemCoreClock,"aw",%progbits
	.globl	SystemCoreClock
	.p2align	2, 0x0
SystemCoreClock:
	.long	72000000                        @ 0x44aa200
	.size	SystemCoreClock, 4

	.hidden	AHBPrescTable                   @ @AHBPrescTable
	.type	AHBPrescTable,%object
	.section	.rodata.AHBPrescTable,"a",%progbits
	.globl	AHBPrescTable
AHBPrescTable:
	.ascii	"\000\000\000\000\000\000\000\000\001\002\003\004\006\007\b\t"
	.size	AHBPrescTable, 16

	.section	".note.GNU-stack","",%progbits
	.eabi_attribute	30, 6	@ Tag_ABI_optimization_goals
	.ARM_attribute	16, 1	@ Tag_AV_eba